target datalayout = "e-m:e-p270:32:32-p271:32:32-p272:64:64-i64:64-i128:128-f80:128-n8:16:32:64-S128"
target triple = "x86_64-pc-linux-gnu"

%struct.jpeg_decompress_struct = type { ptr, ptr, ptr, ptr, i32, i32, ptr, i32, i32, i32, i32, i32, i32, i32, double, i32, i32, i32, i32, i32, i32, i32, i32, i32, i32, i32, i32, i32, i32, i32, i32, i32, i32, ptr, i32, i32, i32, i32, i32, ptr, [4 x ptr], [4 x ptr], [4 x ptr], i32, ptr, i32, i32, [16 x i8], [16 x i8], [16 x i8], i32, i32, i8, i8, i8, i16, i16, i32, i8, i32, ptr, i32, i32, i32, i32, ptr, i32, [4 x ptr], i32, i32, i32, [10 x i32], i32, i32, i32, i32, i32, ptr, ptr, ptr, ptr, ptr, ptr, ptr, ptr, ptr, ptr, ptr }
%struct.jpeg_memory_mgr = type { ptr, ptr, ptr, ptr, ptr, ptr, ptr, ptr, ptr, ptr, ptr, i64, i64 }
%struct.my_input_controller = type { %struct.jpeg_input_controller, i32 }
%struct.jpeg_input_controller = type { ptr, ptr, ptr, ptr, i32, i32 }

; Function Attrs: nounwind uwtable
define void @jinit_input_controller(ptr noundef %0) #0 {
  %2 = alloca ptr, align 8
  %3 = alloca ptr, align 8
  store ptr %0, ptr %2, align 8, !tbaa !3
  call void @llvm.lifetime.start.p0(i64 8, ptr %3) #4
  %4 = load ptr, ptr %2, align 8, !tbaa !3
  %5 = getelementptr inbounds nuw %struct.jpeg_decompress_struct, ptr %4, i32 0, i32 1
  %6 = load ptr, ptr %5, align 8, !tbaa !8
  %7 = getelementptr inbounds nuw %struct.jpeg_memory_mgr, ptr %6, i32 0, i32 0
  %8 = load ptr, ptr %7, align 8, !tbaa !32
  %9 = load ptr, ptr %2, align 8, !tbaa !3
  %10 = call ptr %8(ptr noundef %9, i32 noundef 0, i64 noundef 48)
  store ptr %10, ptr %3, align 8, !tbaa !35
  %11 = load ptr, ptr %3, align 8, !tbaa !35
  %12 = load ptr, ptr %2, align 8, !tbaa !3
  %13 = getelementptr inbounds nuw %struct.jpeg_decompress_struct, ptr %12, i32 0, i32 81
  store ptr %11, ptr %13, align 8, !tbaa !36
  %14 = load ptr, ptr %3, align 8, !tbaa !35
  %15 = getelementptr inbounds nuw %struct.my_input_controller, ptr %14, i32 0, i32 0
  %16 = getelementptr inbounds nuw %struct.jpeg_input_controller, ptr %15, i32 0, i32 0
  store ptr @consume_markers, ptr %16, align 8, !tbaa !37
  %17 = load ptr, ptr %3, align 8, !tbaa !35
  %18 = getelementptr inbounds nuw %struct.my_input_controller, ptr %17, i32 0, i32 0
  %19 = getelementptr inbounds nuw %struct.jpeg_input_controller, ptr %18, i32 0, i32 1
  store ptr @reset_input_controller, ptr %19, align 8, !tbaa !40
  %20 = load ptr, ptr %3, align 8, !tbaa !35
  %21 = getelementptr inbounds nuw %struct.my_input_controller, ptr %20, i32 0, i32 0
  %22 = getelementptr inbounds nuw %struct.jpeg_input_controller, ptr %21, i32 0, i32 2
  store ptr @start_input_pass, ptr %22, align 8, !tbaa !41
  %23 = load ptr, ptr %3, align 8, !tbaa !35
  %24 = getelementptr inbounds nuw %struct.my_input_controller, ptr %23, i32 0, i32 0
  %25 = getelementptr inbounds nuw %struct.jpeg_input_controller, ptr %24, i32 0, i32 3
  store ptr @finish_input_pass, ptr %25, align 8, !tbaa !42
  %26 = load ptr, ptr %3, align 8, !tbaa !35
  %27 = getelementptr inbounds nuw %struct.my_input_controller, ptr %26, i32 0, i32 0
  %28 = getelementptr inbounds nuw %struct.jpeg_input_controller, ptr %27, i32 0, i32 4
  store i32 0, ptr %28, align 8, !tbaa !43
  %29 = load ptr, ptr %3, align 8, !tbaa !35
  %30 = getelementptr inbounds nuw %struct.my_input_controller, ptr %29, i32 0, i32 0
  %31 = getelementptr inbounds nuw %struct.jpeg_input_controller, ptr %30, i32 0, i32 5
  store i32 0, ptr %31, align 4, !tbaa !44
  %32 = load ptr, ptr %3, align 8, !tbaa !35
  %33 = getelementptr inbounds nuw %struct.my_input_controller, ptr %32, i32 0, i32 1
  store i32 1, ptr %33, align 8, !tbaa !45
  call void @llvm.lifetime.end.p0(i64 8, ptr %3) #4
  ret void
}