; Function Attrs: nounwind uwtable
define void @jinit_input_controller(ptr noundef %0) local_unnamed_addr #0 {
  %2 = getelementptr inbounds nuw i8, ptr %0, i64 8
  %3 = load ptr, ptr %2, align 8, !tbaa !3
  %4 = load ptr, ptr %3, align 8, !tbaa !30
  %5 = tail call ptr %4(ptr noundef %0, i32 noundef 0, i64 noundef 48) #5
  %6 = getelementptr inbounds nuw i8, ptr %0, i64 576
  store ptr %5, ptr %6, align 8, !tbaa !33
  store ptr @consume_markers, ptr %5, align 8, !tbaa !34
  %7 = getelementptr inbounds nuw i8, ptr %5, i64 8
  store ptr @reset_input_controller, ptr %7, align 8, !tbaa !37
  %8 = getelementptr inbounds nuw i8, ptr %5, i64 16
  store ptr @start_input_pass, ptr %8, align 8, !tbaa !38
  %9 = getelementptr inbounds nuw i8, ptr %5, i64 24
  store ptr @finish_input_pass, ptr %9, align 8, !tbaa !39
  %10 = getelementptr inbounds nuw i8, ptr %5, i64 32
  store i32 0, ptr %10, align 8, !tbaa !40
  %11 = getelementptr inbounds nuw i8, ptr %5, i64 36
  store i32 0, ptr %11, align 4, !tbaa !41
  %12 = getelementptr inbounds nuw i8, ptr %5, i64 40
  store i32 1, ptr %12, align 8, !tbaa !42
  ret void
}